; Function Attrs: inlinehint mustprogress nounwind uwtable
define internal void @_ZN8QuantLib12_GLOBAL__N_113ValueEstimateD0Ev(ptr noundef nonnull align 8 dereferenceable(56) %this) unnamed_addr #2 align 2 personality ptr @__gxx_personality_v0 {
entry:
  store ptr getelementptr inbounds inrange(-16, 72) (i8, ptr @_ZTVN8QuantLib12_GLOBAL__N_113ValueEstimateE, i64 16), ptr %this, align 8, !tbaa !18
  %parameters_.i = getelementptr inbounds nuw i8, ptr %this, i64 32
  %0 = load ptr, ptr %parameters_.i, align 8, !tbaa !12
  %tobool.not.i.i.i.i = icmp eq ptr %0, null
  br i1 %tobool.not.i.i.i.i, label %_ZN8QuantLib12_GLOBAL__N_113ValueEstimateD2Ev.exit, label %if.then.i.i.i.i

if.then.i.i.i.i:                                  ; preds = %entry
  %_M_end_of_storage.i.i.i = getelementptr inbounds nuw i8, ptr %this, i64 48
  %1 = load ptr, ptr %_M_end_of_storage.i.i.i, align 8, !tbaa !14
  %sub.ptr.lhs.cast.i.i.i = ptrtoint ptr %1 to i64
  %sub.ptr.rhs.cast.i.i.i = ptrtoint ptr %0 to i64
  %sub.ptr.sub.i.i.i = sub i64 %sub.ptr.lhs.cast.i.i.i, %sub.ptr.rhs.cast.i.i.i
  tail call void @_ZdlPvm(ptr noundef nonnull %0, i64 noundef %sub.ptr.sub.i.i.i) #21
  br label %_ZN8QuantLib12_GLOBAL__N_113ValueEstimateD2Ev.exit

_ZN8QuantLib12_GLOBAL__N_113ValueEstimateD2Ev.exit: ; preds = %entry, %if.then.i.i.i.i
  tail call void @_ZdlPvm(ptr noundef nonnull %this, i64 noundef 56) #21
  ret void
}